; Function Attrs: nounwind uwtable
define internal noundef i32 @f(double noundef %0, ptr noundef %1, ptr noundef %2, ptr noundef readonly captures(none) %3) #0 {
  %5 = load double, ptr %3, align 8, !tbaa !4
  %6 = tail call ptr @N_VGetArrayPointer(ptr noundef %1) #7
  %7 = load double, ptr %6, align 8, !tbaa !4
  %8 = tail call double @llvm.fmuladd.f64(double %0, double %0, double 1.000000e+00)
  %9 = fdiv double 1.000000e+00, %8
  %10 = tail call double @llvm.fmuladd.f64(double %5, double %7, double %9)
  %11 = tail call double @atan(double noundef %0) #7, !tbaa !14
  %12 = fneg double %5
  %13 = tail call double @llvm.fmuladd.f64(double %12, double %11, double %10)
  %14 = tail call ptr @N_VGetArrayPointer(ptr noundef %2) #7
  store double %13, ptr %14, align 8, !tbaa !4
  ret i32 0
}